target datalayout = "e-m:e-p270:32:32-p271:32:32-p272:64:64-i64:64-i128:128-f80:128-n8:16:32:64-S128"
target triple = "x86_64-pc-linux-gnu"

%struct.Vec_Ptr_t_ = type { i32, i32, ptr }
%struct.Vec_Int_t_ = type { i32, i32, ptr }
%struct.Abc_Obj_t_ = type { ptr, ptr, i32, i32, %struct.Vec_Int_t_, %struct.Vec_Int_t_, %union.anon, %union.anon.0 }
%union.anon = type { ptr }
%union.anon.0 = type { ptr }

; Function Attrs: inlinehint nounwind uwtable
define internal i32 @Abc_ObjFaninC1(ptr noundef %0) #4 {
  %2 = alloca ptr, align 8
  store ptr %0, ptr %2, align 8, !tbaa !65
  %3 = load ptr, ptr %2, align 8, !tbaa !65
  %4 = getelementptr inbounds nuw %struct.Abc_Obj_t_, ptr %3, i32 0, i32 3
  %5 = load i32, ptr %4, align 4
  %6 = lshr i32 %5, 11
  %7 = and i32 %6, 1
  ret i32 %7
}

; Function Attrs: inlinehint nounwind uwtable
define internal i32 @Abc_ObjFaninC0(ptr noundef %0) #4 {
  %2 = alloca ptr, align 8
  store ptr %0, ptr %2, align 8, !tbaa !65
  %3 = load ptr, ptr %2, align 8, !tbaa !65
  %4 = getelementptr inbounds nuw %struct.Abc_Obj_t_, ptr %3, i32 0, i32 3
  %5 = load i32, ptr %4, align 4
  %6 = lshr i32 %5, 10
  %7 = and i32 %6, 1
  ret i32 %7
}

; Function Attrs: inlinehint nounwind uwtable
define internal i32 @Abc_ObjFaninId1(ptr noundef %0) #4 {
  %2 = alloca ptr, align 8
  store ptr %0, ptr %2, align 8, !tbaa !65
  %3 = load ptr, ptr %2, align 8, !tbaa !65
  %4 = getelementptr inbounds nuw %struct.Abc_Obj_t_, ptr %3, i32 0, i32 4
  %5 = getelementptr inbounds nuw %struct.Vec_Int_t_, ptr %4, i32 0, i32 2
  %6 = load ptr, ptr %5, align 8, !tbaa !91
  %7 = getelementptr inbounds i32, ptr %6, i64 1
  %8 = load i32, ptr %7, align 4, !tbaa !3
  ret i32 %8
}

; Function Attrs: inlinehint nounwind uwtable
define internal i32 @Abc_ObjFaninId0(ptr noundef %0) #4 {
  %2 = alloca ptr, align 8
  store ptr %0, ptr %2, align 8, !tbaa !65
  %3 = load ptr, ptr %2, align 8, !tbaa !65
  %4 = getelementptr inbounds nuw %struct.Abc_Obj_t_, ptr %3, i32 0, i32 4
  %5 = getelementptr inbounds nuw %struct.Vec_Int_t_, ptr %4, i32 0, i32 2
  %6 = load ptr, ptr %5, align 8, !tbaa !91
  %7 = getelementptr inbounds i32, ptr %6, i64 0
  %8 = load i32, ptr %7, align 4, !tbaa !3
  ret i32 %8
}

; Function Attrs: inlinehint nounwind uwtable
define internal ptr @Vec_PtrEntry(ptr noundef %0, i32 noundef %1) #4 {
  %3 = alloca ptr, align 8
  %4 = alloca i32, align 4
  store ptr %0, ptr %3, align 8, !tbaa !44
  store i32 %1, ptr %4, align 4, !tbaa !3
  %5 = load ptr, ptr %3, align 8, !tbaa !44
  %6 = getelementptr inbounds nuw %struct.Vec_Ptr_t_, ptr %5, i32 0, i32 2
  %7 = load ptr, ptr %6, align 8, !tbaa !61
  %8 = load i32, ptr %4, align 4, !tbaa !3
  %9 = sext i32 %8 to i64
  %10 = getelementptr inbounds ptr, ptr %7, i64 %9
  %11 = load ptr, ptr %10, align 8, !tbaa !27
  ret ptr %11
}

; Function Attrs: nounwind uwtable
define void @Res_SimPerformOne(ptr noundef %0, ptr noundef %1, i32 noundef %2) #0 {
  %4 = alloca ptr, align 8
  %5 = alloca ptr, align 8
  %6 = alloca i32, align 4
  %7 = alloca ptr, align 8
  %8 = alloca ptr, align 8
  %9 = alloca ptr, align 8
  %10 = alloca i32, align 4
  %11 = alloca i32, align 4
  %12 = alloca i32, align 4
  store ptr %0, ptr %4, align 8, !tbaa !65
  store ptr %1, ptr %5, align 8, !tbaa !44
  store i32 %2, ptr %6, align 4, !tbaa !3
  call void @llvm.lifetime.start.p0(i64 8, ptr %7) #7
  call void @llvm.lifetime.start.p0(i64 8, ptr %8) #7
  call void @llvm.lifetime.start.p0(i64 8, ptr %9) #7
  call void @llvm.lifetime.start.p0(i64 4, ptr %10) #7
  call void @llvm.lifetime.start.p0(i64 4, ptr %11) #7
  call void @llvm.lifetime.start.p0(i64 4, ptr %12) #7
  %13 = load ptr, ptr %5, align 8, !tbaa !44
  %14 = load ptr, ptr %4, align 8, !tbaa !65
  %15 = getelementptr inbounds nuw %struct.Abc_Obj_t_, ptr %14, i32 0, i32 2
  %16 = load i32, ptr %15, align 8, !tbaa !67
  %17 = call ptr @Vec_PtrEntry(ptr noundef %13, i32 noundef %16)
  store ptr %17, ptr %7, align 8, !tbaa !28
  %18 = load ptr, ptr %5, align 8, !tbaa !44
  %19 = load ptr, ptr %4, align 8, !tbaa !65
  %20 = call i32 @Abc_ObjFaninId0(ptr noundef %19)
  %21 = call ptr @Vec_PtrEntry(ptr noundef %18, i32 noundef %20)
  store ptr %21, ptr %8, align 8, !tbaa !28
  %22 = load ptr, ptr %5, align 8, !tbaa !44
  %23 = load ptr, ptr %4, align 8, !tbaa !65
  %24 = call i32 @Abc_ObjFaninId1(ptr noundef %23)
  %25 = call ptr @Vec_PtrEntry(ptr noundef %22, i32 noundef %24)
  store ptr %25, ptr %9, align 8, !tbaa !28
  %26 = load ptr, ptr %4, align 8, !tbaa !65
  %27 = call i32 @Abc_ObjFaninC0(ptr noundef %26)
  store i32 %27, ptr %11, align 4, !tbaa !3
  %28 = load ptr, ptr %4, align 8, !tbaa !65
  %29 = call i32 @Abc_ObjFaninC1(ptr noundef %28)
  store i32 %29, ptr %12, align 4, !tbaa !3
  %30 = load i32, ptr %11, align 4, !tbaa !3
  %31 = icmp ne i32 %30, 0
  br i1 %31, label %32, label %62

32:                                               ; preds = %3
  %33 = load i32, ptr %12, align 4, !tbaa !3
  %34 = icmp ne i32 %33, 0
  br i1 %34, label %35, label %62

35:                                               ; preds = %32
  store i32 0, ptr %10, align 4, !tbaa !3
  br label %36

36:                                               ; preds = %58, %35
  %37 = load i32, ptr %10, align 4, !tbaa !3
  %38 = load i32, ptr %6, align 4, !tbaa !3
  %39 = icmp slt i32 %37, %38
  br i1 %39, label %40, label %61

40:                                               ; preds = %36
  %41 = load ptr, ptr %8, align 8, !tbaa !28
  %42 = load i32, ptr %10, align 4, !tbaa !3
  %43 = sext i32 %42 to i64
  %44 = getelementptr inbounds i32, ptr %41, i64 %43
  %45 = load i32, ptr %44, align 4, !tbaa !3
  %46 = xor i32 %45, -1
  %47 = load ptr, ptr %9, align 8, !tbaa !28
  %48 = load i32, ptr %10, align 4, !tbaa !3
  %49 = sext i32 %48 to i64
  %50 = getelementptr inbounds i32, ptr %47, i64 %49
  %51 = load i32, ptr %50, align 4, !tbaa !3
  %52 = xor i32 %51, -1
  %53 = and i32 %46, %52
  %54 = load ptr, ptr %7, align 8, !tbaa !28
  %55 = load i32, ptr %10, align 4, !tbaa !3
  %56 = sext i32 %55 to i64
  %57 = getelementptr inbounds i32, ptr %54, i64 %56
  store i32 %53, ptr %57, align 4, !tbaa !3
  br label %58

58:                                               ; preds = %40
  %59 = load i32, ptr %10, align 4, !tbaa !3
  %60 = add nsw i32 %59, 1
  store i32 %60, ptr %10, align 4, !tbaa !3
  br label %36, !llvm.loop !87

61:                                               ; preds = %36
  br label %153

62:                                               ; preds = %32, %3
  %63 = load i32, ptr %11, align 4, !tbaa !3
  %64 = icmp ne i32 %63, 0
  br i1 %64, label %65, label %94

65:                                               ; preds = %62
  %66 = load i32, ptr %12, align 4, !tbaa !3
  %67 = icmp ne i32 %66, 0
  br i1 %67, label %94, label %68

68:                                               ; preds = %65
  store i32 0, ptr %10, align 4, !tbaa !3
  br label %69

69:                                               ; preds = %90, %68
  %70 = load i32, ptr %10, align 4, !tbaa !3
  %71 = load i32, ptr %6, align 4, !tbaa !3
  %72 = icmp slt i32 %70, %71
  br i1 %72, label %73, label %93

73:                                               ; preds = %69
  %74 = load ptr, ptr %8, align 8, !tbaa !28
  %75 = load i32, ptr %10, align 4, !tbaa !3
  %76 = sext i32 %75 to i64
  %77 = getelementptr inbounds i32, ptr %74, i64 %76
  %78 = load i32, ptr %77, align 4, !tbaa !3
  %79 = xor i32 %78, -1
  %80 = load ptr, ptr %9, align 8, !tbaa !28
  %81 = load i32, ptr %10, align 4, !tbaa !3
  %82 = sext i32 %81 to i64
  %83 = getelementptr inbounds i32, ptr %80, i64 %82
  %84 = load i32, ptr %83, align 4, !tbaa !3
  %85 = and i32 %79, %84
  %86 = load ptr, ptr %7, align 8, !tbaa !28
  %87 = load i32, ptr %10, align 4, !tbaa !3
  %88 = sext i32 %87 to i64
  %89 = getelementptr inbounds i32, ptr %86, i64 %88
  store i32 %85, ptr %89, align 4, !tbaa !3
  br label %90

90:                                               ; preds = %73
  %91 = load i32, ptr %10, align 4, !tbaa !3
  %92 = add nsw i32 %91, 1
  store i32 %92, ptr %10, align 4, !tbaa !3
  br label %69, !llvm.loop !88

93:                                               ; preds = %69
  br label %152

94:                                               ; preds = %65, %62
  %95 = load i32, ptr %11, align 4, !tbaa !3
  %96 = icmp ne i32 %95, 0
  br i1 %96, label %126, label %97

97:                                               ; preds = %94
  %98 = load i32, ptr %12, align 4, !tbaa !3
  %99 = icmp ne i32 %98, 0
  br i1 %99, label %100, label %126

100:                                              ; preds = %97
  store i32 0, ptr %10, align 4, !tbaa !3
  br label %101

101:                                              ; preds = %122, %100
  %102 = load i32, ptr %10, align 4, !tbaa !3
  %103 = load i32, ptr %6, align 4, !tbaa !3
  %104 = icmp slt i32 %102, %103
  br i1 %104, label %105, label %125

105:                                              ; preds = %101
  %106 = load ptr, ptr %8, align 8, !tbaa !28
  %107 = load i32, ptr %10, align 4, !tbaa !3
  %108 = sext i32 %107 to i64
  %109 = getelementptr inbounds i32, ptr %106, i64 %108
  %110 = load i32, ptr %109, align 4, !tbaa !3
  %111 = load ptr, ptr %9, align 8, !tbaa !28
  %112 = load i32, ptr %10, align 4, !tbaa !3
  %113 = sext i32 %112 to i64
  %114 = getelementptr inbounds i32, ptr %111, i64 %113
  %115 = load i32, ptr %114, align 4, !tbaa !3
  %116 = xor i32 %115, -1
  %117 = and i32 %110, %116
  %118 = load ptr, ptr %7, align 8, !tbaa !28
  %119 = load i32, ptr %10, align 4, !tbaa !3
  %120 = sext i32 %119 to i64
  %121 = getelementptr inbounds i32, ptr %118, i64 %120
  store i32 %117, ptr %121, align 4, !tbaa !3
  br label %122

122:                                              ; preds = %105
  %123 = load i32, ptr %10, align 4, !tbaa !3
  %124 = add nsw i32 %123, 1
  store i32 %124, ptr %10, align 4, !tbaa !3
  br label %101, !llvm.loop !89

125:                                              ; preds = %101
  br label %151

126:                                              ; preds = %97, %94
  store i32 0, ptr %10, align 4, !tbaa !3
  br label %127

127:                                              ; preds = %147, %126
  %128 = load i32, ptr %10, align 4, !tbaa !3
  %129 = load i32, ptr %6, align 4, !tbaa !3
  %130 = icmp slt i32 %128, %129
  br i1 %130, label %131, label %150

131:                                              ; preds = %127
  %132 = load ptr, ptr %8, align 8, !tbaa !28
  %133 = load i32, ptr %10, align 4, !tbaa !3
  %134 = sext i32 %133 to i64
  %135 = getelementptr inbounds i32, ptr %132, i64 %134
  %136 = load i32, ptr %135, align 4, !tbaa !3
  %137 = load ptr, ptr %9, align 8, !tbaa !28
  %138 = load i32, ptr %10, align 4, !tbaa !3
  %139 = sext i32 %138 to i64
  %140 = getelementptr inbounds i32, ptr %137, i64 %139
  %141 = load i32, ptr %140, align 4, !tbaa !3
  %142 = and i32 %136, %141
  %143 = load ptr, ptr %7, align 8, !tbaa !28
  %144 = load i32, ptr %10, align 4, !tbaa !3
  %145 = sext i32 %144 to i64
  %146 = getelementptr inbounds i32, ptr %143, i64 %145
  store i32 %142, ptr %146, align 4, !tbaa !3
  br label %147

147:                                              ; preds = %131
  %148 = load i32, ptr %10, align 4, !tbaa !3
  %149 = add nsw i32 %148, 1
  store i32 %149, ptr %10, align 4, !tbaa !3
  br label %127, !llvm.loop !90

150:                                              ; preds = %127
  br label %151

151:                                              ; preds = %150, %125
  br label %152

152:                                              ; preds = %151, %93
  br label %153

153:                                              ; preds = %152, %61
  call void @llvm.lifetime.end.p0(i64 4, ptr %12) #7
  call void @llvm.lifetime.end.p0(i64 4, ptr %11) #7
  call void @llvm.lifetime.end.p0(i64 4, ptr %10) #7
  call void @llvm.lifetime.end.p0(i64 8, ptr %9) #7
  call void @llvm.lifetime.end.p0(i64 8, ptr %8) #7
  call void @llvm.lifetime.end.p0(i64 8, ptr %7) #7
  ret void
}