; Function Attrs: nofree norecurse nosync nounwind memory(readwrite, inaccessiblemem: none) uwtable
define void @Res_SimPerformOne(ptr noundef readonly captures(none) %0, ptr noundef readonly captures(none) %1, i32 noundef %2) local_unnamed_addr #7 {
  %4 = getelementptr inbounds nuw i8, ptr %0, i64 16
  %5 = load i32, ptr %4, align 8, !tbaa !62
  %6 = getelementptr i8, ptr %1, i64 8
  %.val55 = load ptr, ptr %6, align 8, !tbaa !25
  %7 = sext i32 %5 to i64
  %8 = getelementptr inbounds ptr, ptr %.val55, i64 %7
  %9 = load ptr, ptr %8, align 8, !tbaa !19
  %10 = getelementptr i8, ptr %0, i64 32
  %.val56 = load ptr, ptr %10, align 8, !tbaa !85
  %.val56.val = load i32, ptr %.val56, align 4, !tbaa !59
  %11 = sext i32 %.val56.val to i64
  %12 = getelementptr inbounds ptr, ptr %.val55, i64 %11
  %13 = load ptr, ptr %12, align 8, !tbaa !19
  %14 = getelementptr i8, ptr %.val56, i64 4
  %.val57.val = load i32, ptr %14, align 4, !tbaa !59
  %15 = sext i32 %.val57.val to i64
  %16 = getelementptr inbounds ptr, ptr %.val55, i64 %15
  %17 = load ptr, ptr %16, align 8, !tbaa !19
  %18 = getelementptr i8, ptr %0, i64 20
  %.val58 = load i32, ptr %18, align 4
  %19 = lshr i32 %.val58, 10
  %20 = and i32 %19, 1
  %21 = icmp ne i32 %20, 0
  %22 = and i32 %.val58, 2048
  %23 = icmp ne i32 %22, 0
  %or.cond = and i1 %23, %21
  br i1 %or.cond, label %.preheader, label %31

.preheader:                                       ; preds = %3
  %24 = icmp sgt i32 %2, 0
  br i1 %24, label %.lr.ph72.preheader, label %.loopexit

.lr.ph72.preheader:                               ; preds = %.preheader
  %wide.trip.count90 = zext nneg i32 %2 to i64
  br label %.lr.ph72

.lr.ph72:                                         ; preds = %.lr.ph72.preheader, %.lr.ph72
  %indvars.iv87 = phi i64 [ 0, %.lr.ph72.preheader ], [ %indvars.iv.next88, %.lr.ph72 ]
  %25 = getelementptr inbounds nuw i32, ptr %13, i64 %indvars.iv87
  %26 = load i32, ptr %25, align 4, !tbaa !59
  %27 = getelementptr inbounds nuw i32, ptr %17, i64 %indvars.iv87
  %28 = load i32, ptr %27, align 4, !tbaa !59
  %.demorgan = or i32 %28, %26
  %29 = xor i32 %.demorgan, -1
  %30 = getelementptr inbounds nuw i32, ptr %9, i64 %indvars.iv87
  store i32 %29, ptr %30, align 4, !tbaa !59
  %indvars.iv.next88 = add nuw nsw i64 %indvars.iv87, 1
  %exitcond91.not = icmp eq i64 %indvars.iv.next88, %wide.trip.count90
  br i1 %exitcond91.not, label %.loopexit, label %.lr.ph72, !llvm.loop !86

31:                                               ; preds = %3
  %32 = icmp eq i32 %20, 0
  %or.cond3 = or i1 %23, %32
  br i1 %or.cond3, label %41, label %.preheader64

.preheader64:                                     ; preds = %31
  %33 = icmp sgt i32 %2, 0
  br i1 %33, label %.lr.ph.preheader, label %.loopexit

.lr.ph.preheader:                                 ; preds = %.preheader64
  %wide.trip.count = zext nneg i32 %2 to i64
  br label %.lr.ph

.lr.ph:                                           ; preds = %.lr.ph.preheader, %.lr.ph
  %indvars.iv = phi i64 [ 0, %.lr.ph.preheader ], [ %indvars.iv.next, %.lr.ph ]
  %34 = getelementptr inbounds nuw i32, ptr %13, i64 %indvars.iv
  %35 = load i32, ptr %34, align 4, !tbaa !59
  %36 = xor i32 %35, -1
  %37 = getelementptr inbounds nuw i32, ptr %17, i64 %indvars.iv
  %38 = load i32, ptr %37, align 4, !tbaa !59
  %39 = and i32 %38, %36
  %40 = getelementptr inbounds nuw i32, ptr %9, i64 %indvars.iv
  store i32 %39, ptr %40, align 4, !tbaa !59
  %indvars.iv.next = add nuw nsw i64 %indvars.iv, 1
  %exitcond.not = icmp eq i64 %indvars.iv.next, %wide.trip.count
  br i1 %exitcond.not, label %.loopexit, label %.lr.ph, !llvm.loop !87

41:                                               ; preds = %31
  %or.cond5 = and i1 %23, %32
  %42 = icmp sgt i32 %2, 0
  br i1 %or.cond5, label %.preheader60, label %.preheader62

.preheader62:                                     ; preds = %41
  br i1 %42, label %.lr.ph68.preheader, label %.loopexit

.lr.ph68.preheader:                               ; preds = %.preheader62
  %wide.trip.count80 = zext nneg i32 %2 to i64
  br label %.lr.ph68

.preheader60:                                     ; preds = %41
  br i1 %42, label %.lr.ph70.preheader, label %.loopexit

.lr.ph70.preheader:                               ; preds = %.preheader60
  %wide.trip.count85 = zext nneg i32 %2 to i64
  br label %.lr.ph70

.lr.ph70:                                         ; preds = %.lr.ph70.preheader, %.lr.ph70
  %indvars.iv82 = phi i64 [ 0, %.lr.ph70.preheader ], [ %indvars.iv.next83, %.lr.ph70 ]
  %43 = getelementptr inbounds nuw i32, ptr %13, i64 %indvars.iv82
  %44 = load i32, ptr %43, align 4, !tbaa !59
  %45 = getelementptr inbounds nuw i32, ptr %17, i64 %indvars.iv82
  %46 = load i32, ptr %45, align 4, !tbaa !59
  %47 = xor i32 %46, -1
  %48 = and i32 %44, %47
  %49 = getelementptr inbounds nuw i32, ptr %9, i64 %indvars.iv82
  store i32 %48, ptr %49, align 4, !tbaa !59
  %indvars.iv.next83 = add nuw nsw i64 %indvars.iv82, 1
  %exitcond86.not = icmp eq i64 %indvars.iv.next83, %wide.trip.count85
  br i1 %exitcond86.not, label %.loopexit, label %.lr.ph70, !llvm.loop !88

.lr.ph68:                                         ; preds = %.lr.ph68.preheader, %.lr.ph68
  %indvars.iv77 = phi i64 [ 0, %.lr.ph68.preheader ], [ %indvars.iv.next78, %.lr.ph68 ]
  %50 = getelementptr inbounds nuw i32, ptr %13, i64 %indvars.iv77
  %51 = load i32, ptr %50, align 4, !tbaa !59
  %52 = getelementptr inbounds nuw i32, ptr %17, i64 %indvars.iv77
  %53 = load i32, ptr %52, align 4, !tbaa !59
  %54 = and i32 %53, %51
  %55 = getelementptr inbounds nuw i32, ptr %9, i64 %indvars.iv77
  store i32 %54, ptr %55, align 4, !tbaa !59
  %indvars.iv.next78 = add nuw nsw i64 %indvars.iv77, 1
  %exitcond81.not = icmp eq i64 %indvars.iv.next78, %wide.trip.count80
  br i1 %exitcond81.not, label %.loopexit, label %.lr.ph68, !llvm.loop !89

.loopexit:                                        ; preds = %.lr.ph, %.lr.ph68, %.lr.ph70, %.lr.ph72, %.preheader64, %.preheader62, %.preheader60, %.preheader
  ret void
}